target datalayout = "e-m:e-p270:32:32-p271:32:32-p272:64:64-i64:64-i128:128-f80:128-n8:16:32:64-S128"
target triple = "x86_64-pc-linux-gnu"

%struct._GString = type { ptr, i64, i64 }
%struct._GList = type { ptr, ptr, ptr }
%struct._GPtrArray = type { ptr, i32 }

@.str.11 = private unnamed_addr constant [2 x i8] c"\0A\00", align 1
@.str.33 = private unnamed_addr constant [7 x i8] c"%*s%s\0A\00", align 1
@.str.34 = private unnamed_addr constant [1 x i8] zeroinitializer, align 1
@.str.35 = private unnamed_addr constant [4 x i8] c"%*s\00", align 1
@.str.36 = private unnamed_addr constant [5 x i8] c"%-*s\00", align 1

; Function Attrs: null_pointer_is_valid sspstrong uwtable
define internal void @rtrim_gstring(ptr noundef %0) #0 {
  %2 = alloca ptr, align 8
  %3 = alloca i64, align 8
  store ptr %0, ptr %2, align 8
  call void @llvm.lifetime.start.p0(i64 8, ptr %3) #8
  %4 = load ptr, ptr %2, align 8
  %5 = getelementptr inbounds nuw %struct._GString, ptr %4, i32 0, i32 1
  %6 = load i64, ptr %5, align 8
  %7 = sub i64 %6, 1
  store i64 %7, ptr %3, align 8
  br label %8

8:                                                ; preds = %17, %1
  %9 = load ptr, ptr %2, align 8
  %10 = getelementptr inbounds nuw %struct._GString, ptr %9, i32 0, i32 0
  %11 = load ptr, ptr %10, align 8
  %12 = load i64, ptr %3, align 8
  %13 = getelementptr i8, ptr %11, i64 %12
  %14 = load i8, ptr %13, align 1
  %15 = sext i8 %14 to i32
  %16 = icmp eq i32 %15, 32
  br i1 %16, label %17, label %20

17:                                               ; preds = %8
  %18 = load i64, ptr %3, align 8
  %19 = add i64 %18, -1
  store i64 %19, ptr %3, align 8
  br label %8, !llvm.loop !13

20:                                               ; preds = %8
  %21 = load i64, ptr %3, align 8
  %22 = add i64 %21, 1
  store i64 %22, ptr %3, align 8
  %23 = load i64, ptr %3, align 8
  %24 = load ptr, ptr %2, align 8
  %25 = getelementptr inbounds nuw %struct._GString, ptr %24, i32 0, i32 1
  %26 = load i64, ptr %25, align 8
  %27 = icmp ult i64 %23, %26
  br i1 %27, label %28, label %32

28:                                               ; preds = %20
  %29 = load ptr, ptr %2, align 8
  %30 = load i64, ptr %3, align 8
  %31 = call ptr @g_string_truncate(ptr noundef %29, i64 noundef %30)
  br label %32

32:                                               ; preds = %28, %20
  call void @llvm.lifetime.end.p0(i64 8, ptr %3) #8
  ret void
}

; Function Attrs: null_pointer_is_valid sspstrong uwtable
define internal void @features_to_columns(ptr noundef %0, ptr noundef %1) #0 {
  %3 = alloca ptr, align 8
  %4 = alloca ptr, align 8
  %5 = alloca i8, align 1
  %6 = alloca i8, align 1
  %7 = alloca i8, align 1
  %8 = alloca i8, align 1
  %9 = alloca i32, align 4
  %10 = alloca ptr, align 8
  %11 = alloca ptr, align 8
  %12 = alloca ptr, align 8
  %13 = alloca i32, align 4
  %14 = alloca i8, align 1
  %15 = alloca i32, align 4
  %16 = alloca i32, align 4
  %17 = alloca i32, align 4
  store ptr %0, ptr %3, align 8
  store ptr %1, ptr %4, align 8
  call void @llvm.lifetime.start.p0(i64 1, ptr %5) #8
  store i8 85, ptr %5, align 1
  call void @llvm.lifetime.start.p0(i64 1, ptr %6) #8
  store i8 2, ptr %6, align 1
  call void @llvm.lifetime.start.p0(i64 1, ptr %7) #8
  store i8 0, ptr %7, align 1
  call void @llvm.lifetime.start.p0(i64 1, ptr %8) #8
  store i8 0, ptr %8, align 1
  call void @llvm.lifetime.start.p0(i64 4, ptr %9) #8
  store i32 0, ptr %9, align 4
  call void @llvm.lifetime.start.p0(i64 8, ptr %10) #8
  call void @llvm.lifetime.start.p0(i64 8, ptr %11) #8
  call void @llvm.lifetime.start.p0(i64 8, ptr %12) #8
  %18 = load ptr, ptr %3, align 8
  %19 = load ptr, ptr %18, align 8
  %20 = call i32 @g_list_length(ptr noundef %19)
  store i32 %20, ptr %9, align 4
  %21 = load i32, ptr %9, align 4
  %22 = icmp eq i32 %21, 0
  br i1 %22, label %23, label %24

23:                                               ; preds = %2
  store i32 1, ptr %13, align 4
  br label %152

24:                                               ; preds = %2
  %25 = load i32, ptr %9, align 4
  %26 = call ptr @g_ptr_array_sized_new(i32 noundef %25)
  store ptr %26, ptr %11, align 8
  %27 = load ptr, ptr %3, align 8
  %28 = load ptr, ptr %27, align 8
  store ptr %28, ptr %12, align 8
  br label %29

29:                                               ; preds = %58, %24
  %30 = load ptr, ptr %12, align 8
  %31 = icmp ne ptr %30, null
  br i1 %31, label %32, label %62

32:                                               ; preds = %29
  %33 = load ptr, ptr %12, align 8
  %34 = getelementptr inbounds nuw %struct._GList, ptr %33, i32 0, i32 0
  %35 = load ptr, ptr %34, align 8
  store ptr %35, ptr %10, align 8
  %36 = load i8, ptr %8, align 1
  %37 = zext i8 %36 to i32
  %38 = load ptr, ptr %10, align 8
  %39 = call i64 @strlen(ptr noundef %38) #9
  %40 = trunc i64 %39 to i8
  %41 = zext i8 %40 to i32
  %42 = icmp sgt i32 %37, %41
  br i1 %42, label %43, label %46

43:                                               ; preds = %32
  %44 = load i8, ptr %8, align 1
  %45 = zext i8 %44 to i32
  br label %51

46:                                               ; preds = %32
  %47 = load ptr, ptr %10, align 8
  %48 = call i64 @strlen(ptr noundef %47) #9
  %49 = trunc i64 %48 to i8
  %50 = zext i8 %49 to i32
  br label %51

51:                                               ; preds = %46, %43
  %52 = phi i32 [ %45, %43 ], [ %50, %46 ]
  %53 = trunc i32 %52 to i8
  store i8 %53, ptr %8, align 1
  %54 = load ptr, ptr %11, align 8
  %55 = load ptr, ptr %12, align 8
  %56 = getelementptr inbounds nuw %struct._GList, ptr %55, i32 0, i32 0
  %57 = load ptr, ptr %56, align 8
  call void @g_ptr_array_add(ptr noundef %54, ptr noundef %57)
  br label %58

58:                                               ; preds = %51
  %59 = load ptr, ptr %12, align 8
  %60 = getelementptr inbounds nuw %struct._GList, ptr %59, i32 0, i32 1
  %61 = load ptr, ptr %60, align 8
  store ptr %61, ptr %12, align 8
  br label %29, !llvm.loop !9

62:                                               ; preds = %29
  %63 = load i8, ptr %8, align 1
  %64 = zext i8 %63 to i32
  %65 = add i32 %64, 2
  %66 = trunc i32 %65 to i8
  store i8 %66, ptr %8, align 1
  %67 = load i8, ptr %8, align 1
  %68 = zext i8 %67 to i32
  %69 = sdiv i32 83, %68
  %70 = trunc i32 %69 to i8
  store i8 %70, ptr %7, align 1
  %71 = load i8, ptr %7, align 1
  %72 = zext i8 %71 to i32
  %73 = icmp sle i32 %72, 1
  br i1 %73, label %77, label %74

74:                                               ; preds = %62
  %75 = load i32, ptr %9, align 4
  %76 = icmp ule i32 %75, 1
  br i1 %76, label %77, label %94

77:                                               ; preds = %74, %62
  %78 = load ptr, ptr %3, align 8
  %79 = load ptr, ptr %78, align 8
  store ptr %79, ptr %12, align 8
  br label %80

80:                                               ; preds = %89, %77
  %81 = load ptr, ptr %12, align 8
  %82 = icmp ne ptr %81, null
  br i1 %82, label %83, label %93

83:                                               ; preds = %80
  %84 = load ptr, ptr %12, align 8
  %85 = getelementptr inbounds nuw %struct._GList, ptr %84, i32 0, i32 0
  %86 = load ptr, ptr %85, align 8
  store ptr %86, ptr %10, align 8
  %87 = load ptr, ptr %4, align 8
  %88 = load ptr, ptr %10, align 8
  call void (ptr, ptr, ...) @g_string_append_printf(ptr noundef %87, ptr noundef @.str.33, i32 noundef 2, ptr noundef @.str.34, ptr noundef %88)
  br label %89

89:                                               ; preds = %83
  %90 = load ptr, ptr %12, align 8
  %91 = getelementptr inbounds nuw %struct._GList, ptr %90, i32 0, i32 1
  %92 = load ptr, ptr %91, align 8
  store ptr %92, ptr %12, align 8
  br label %80, !llvm.loop !10

93:                                               ; preds = %80
  br label %149

94:                                               ; preds = %74
  call void @llvm.lifetime.start.p0(i64 1, ptr %14) #8
  %95 = load i32, ptr %9, align 4
  %96 = load i8, ptr %7, align 1
  %97 = zext i8 %96 to i32
  %98 = add i32 %95, %97
  %99 = sub i32 %98, 1
  %100 = load i8, ptr %7, align 1
  %101 = zext i8 %100 to i32
  %102 = udiv i32 %99, %101
  %103 = trunc i32 %102 to i8
  store i8 %103, ptr %14, align 1
  call void @llvm.lifetime.start.p0(i64 4, ptr %15) #8
  call void @llvm.lifetime.start.p0(i64 4, ptr %16) #8
  store i32 0, ptr %15, align 4
  br label %104

104:                                              ; preds = %145, %94
  %105 = load i32, ptr %15, align 4
  %106 = load i8, ptr %14, align 1
  %107 = zext i8 %106 to i32
  %108 = icmp ult i32 %105, %107
  br i1 %108, label %109, label %148

109:                                              ; preds = %104
  %110 = load ptr, ptr %4, align 8
  call void (ptr, ptr, ...) @g_string_append_printf(ptr noundef %110, ptr noundef @.str.35, i32 noundef 2, ptr noundef @.str.34)
  store i32 0, ptr %16, align 4
  br label %111

111:                                              ; preds = %138, %109
  %112 = load i32, ptr %16, align 4
  %113 = load i8, ptr %7, align 1
  %114 = zext i8 %113 to i32
  %115 = icmp ult i32 %112, %114
  br i1 %115, label %116, label %141

116:                                              ; preds = %111
  call void @llvm.lifetime.start.p0(i64 4, ptr %17) #8
  %117 = load i32, ptr %15, align 4
  %118 = load i32, ptr %16, align 4
  %119 = load i8, ptr %14, align 1
  %120 = zext i8 %119 to i32
  %121 = mul i32 %118, %120
  %122 = add i32 %117, %121
  store i32 %122, ptr %17, align 4
  %123 = load i32, ptr %17, align 4
  %124 = load i32, ptr %9, align 4
  %125 = icmp ult i32 %123, %124
  br i1 %125, label %126, label %137

126:                                              ; preds = %116
  %127 = load ptr, ptr %4, align 8
  %128 = load i8, ptr %8, align 1
  %129 = zext i8 %128 to i32
  %130 = load ptr, ptr %11, align 8
  %131 = getelementptr inbounds nuw %struct._GPtrArray, ptr %130, i32 0, i32 0
  %132 = load ptr, ptr %131, align 8
  %133 = load i32, ptr %17, align 4
  %134 = zext i32 %133 to i64
  %135 = getelementptr ptr, ptr %132, i64 %134
  %136 = load ptr, ptr %135, align 8
  call void (ptr, ptr, ...) @g_string_append_printf(ptr noundef %127, ptr noundef @.str.36, i32 noundef %129, ptr noundef %136)
  br label %137

137:                                              ; preds = %126, %116
  call void @llvm.lifetime.end.p0(i64 4, ptr %17) #8
  br label %138

138:                                              ; preds = %137
  %139 = load i32, ptr %16, align 4
  %140 = add i32 %139, 1
  store i32 %140, ptr %16, align 4
  br label %111, !llvm.loop !11

141:                                              ; preds = %111
  %142 = load ptr, ptr %4, align 8
  call void @rtrim_gstring(ptr noundef %142)
  %143 = load ptr, ptr %4, align 8
  %144 = call ptr @g_string_append(ptr noundef %143, ptr noundef @.str.11)
  br label %145

145:                                              ; preds = %141
  %146 = load i32, ptr %15, align 4
  %147 = add i32 %146, 1
  store i32 %147, ptr %15, align 4
  br label %104, !llvm.loop !12

148:                                              ; preds = %104
  call void @llvm.lifetime.end.p0(i64 4, ptr %16) #8
  call void @llvm.lifetime.end.p0(i64 4, ptr %15) #8
  call void @llvm.lifetime.end.p0(i64 1, ptr %14) #8
  br label %149

149:                                              ; preds = %148, %93
  %150 = load ptr, ptr %11, align 8
  %151 = call ptr @g_ptr_array_free(ptr noundef %150, i32 noundef 1)
  store i32 0, ptr %13, align 4
  br label %152

152:                                              ; preds = %149, %23
  call void @llvm.lifetime.end.p0(i64 8, ptr %12) #8
  call void @llvm.lifetime.end.p0(i64 8, ptr %11) #8
  call void @llvm.lifetime.end.p0(i64 8, ptr %10) #8
  call void @llvm.lifetime.end.p0(i64 4, ptr %9) #8
  call void @llvm.lifetime.end.p0(i64 1, ptr %8) #8
  call void @llvm.lifetime.end.p0(i64 1, ptr %7) #8
  call void @llvm.lifetime.end.p0(i64 1, ptr %6) #8
  call void @llvm.lifetime.end.p0(i64 1, ptr %5) #8
  %153 = load i32, ptr %13, align 4
  switch i32 %153, label %155 [
    i32 0, label %154
    i32 1, label %154
  ]

154:                                              ; preds = %152, %152
  ret void

155:                                              ; preds = %152
  unreachable
}