; Function Attrs: null_pointer_is_valid sspstrong uwtable
define internal fastcc void @features_to_columns(ptr noundef readonly captures(none) %0, ptr noundef %1) unnamed_addr #0 {
  %3 = load ptr, ptr %0, align 8
  %4 = tail call i32 @g_list_length(ptr noundef %3)
  %5 = icmp eq i32 %4, 0
  br i1 %5, label %59, label %6

6:                                                ; preds = %2
  %7 = tail call ptr @g_ptr_array_sized_new(i32 noundef %4)
  %.04756 = load ptr, ptr %0, align 8
  %.not57 = icmp eq ptr %.04756, null
  br i1 %.not57, label %._crit_edge, label %.lr.ph

.lr.ph:                                           ; preds = %6, %.lr.ph
  %.04759 = phi ptr [ %.047, %.lr.ph ], [ %.04756, %6 ]
  %.04658 = phi i8 [ %15, %.lr.ph ], [ 0, %6 ]
  %8 = load ptr, ptr %.04759, align 8
  %9 = zext i8 %.04658 to i32
  %10 = tail call i64 @strlen(ptr noundef %8) #10
  %11 = trunc i64 %10 to i32
  %12 = and i32 %11, 255
  %13 = icmp samesign ult i32 %12, %9
  %14 = trunc i64 %10 to i8
  %15 = select i1 %13, i8 %.04658, i8 %14
  tail call void @g_ptr_array_add(ptr noundef %7, ptr noundef %8)
  %16 = getelementptr inbounds nuw i8, ptr %.04759, i64 8
  %.047 = load ptr, ptr %16, align 8
  %.not = icmp eq ptr %.047, null
  br i1 %.not, label %._crit_edge.loopexit, label %.lr.ph, !llvm.loop !9

._crit_edge.loopexit:                             ; preds = %.lr.ph
  %17 = add i8 %15, 2
  br label %._crit_edge

._crit_edge:                                      ; preds = %._crit_edge.loopexit, %6
  %.046.lcssa = phi i8 [ 2, %6 ], [ %17, %._crit_edge.loopexit ]
  %18 = zext i8 %.046.lcssa to i32
  %19 = udiv i8 83, %.046.lcssa
  %20 = icmp ugt i8 %.046.lcssa, 41
  %21 = icmp eq i32 %4, 1
  %or.cond = or i1 %21, %20
  br i1 %or.cond, label %.preheader, label %24

.preheader:                                       ; preds = %._crit_edge
  %.164 = load ptr, ptr %0, align 8
  %.not5465 = icmp eq ptr %.164, null
  br i1 %.not5465, label %.loopexit, label %.lr.ph67

.lr.ph67:                                         ; preds = %.preheader, %.lr.ph67
  %.166 = phi ptr [ %.1, %.lr.ph67 ], [ %.164, %.preheader ]
  %22 = load ptr, ptr %.166, align 8
  tail call void (ptr, ptr, ...) @g_string_append_printf(ptr noundef %1, ptr noundef nonnull @.str.33, i32 noundef 2, ptr noundef nonnull @.str.34, ptr noundef %22)
  %23 = getelementptr inbounds nuw i8, ptr %.166, i64 8
  %.1 = load ptr, ptr %23, align 8
  %.not54 = icmp eq ptr %.1, null
  br i1 %.not54, label %.loopexit, label %.lr.ph67, !llvm.loop !10

24:                                               ; preds = %._crit_edge
  %25 = zext nneg i8 %19 to i32
  %26 = add i32 %4, -1
  %27 = add i32 %26, %25
  %28 = udiv i32 %27, %25
  %29 = and i32 %28, 255
  %.not68 = icmp eq i32 %29, 0
  br i1 %.not68, label %.loopexit, label %.lr.ph63

.lr.ph63:                                         ; preds = %24
  %30 = getelementptr inbounds nuw i8, ptr %1, i64 8
  %31 = zext nneg i32 %29 to i64
  %32 = zext i32 %4 to i64
  %33 = zext nneg i8 %19 to i64
  br label %34

34:                                               ; preds = %.lr.ph63, %rtrim_gstring.exit
  %indvars.iv71 = phi i64 [ 0, %.lr.ph63 ], [ %indvars.iv.next72, %rtrim_gstring.exit ]
  tail call void (ptr, ptr, ...) @g_string_append_printf(ptr noundef %1, ptr noundef nonnull @.str.35, i32 noundef 2, ptr noundef nonnull @.str.34)
  br label %35

35:                                               ; preds = %34, %43
  %indvars.iv = phi i64 [ 0, %34 ], [ %indvars.iv.next, %43 ]
  %36 = mul nuw nsw i64 %indvars.iv, %31
  %37 = add nuw nsw i64 %36, %indvars.iv71
  %38 = icmp samesign ult i64 %37, %32
  br i1 %38, label %39, label %43

39:                                               ; preds = %35
  %40 = load ptr, ptr %7, align 8
  %41 = getelementptr ptr, ptr %40, i64 %37
  %42 = load ptr, ptr %41, align 8
  tail call void (ptr, ptr, ...) @g_string_append_printf(ptr noundef %1, ptr noundef nonnull @.str.36, i32 noundef %18, ptr noundef %42)
  br label %43

43:                                               ; preds = %39, %35
  %indvars.iv.next = add nuw nsw i64 %indvars.iv, 1
  %44 = icmp samesign ult i64 %indvars.iv.next, %33
  br i1 %44, label %35, label %45, !llvm.loop !11

45:                                               ; preds = %43
  %46 = load i64, ptr %30, align 8
  %47 = load ptr, ptr %1, align 8
  br label %48

48:                                               ; preds = %48, %45
  %.0.in.i = phi i64 [ %46, %45 ], [ %.0.i, %48 ]
  %.0.i = add i64 %.0.in.i, -1
  %49 = getelementptr i8, ptr %47, i64 %.0.i
  %50 = load i8, ptr %49, align 1
  %51 = icmp eq i8 %50, 32
  br i1 %51, label %48, label %52, !llvm.loop !12

52:                                               ; preds = %48
  %53 = icmp ult i64 %.0.in.i, %46
  br i1 %53, label %54, label %rtrim_gstring.exit

54:                                               ; preds = %52
  %55 = tail call ptr @g_string_truncate(ptr noundef %1, i64 noundef %.0.in.i)
  br label %rtrim_gstring.exit

rtrim_gstring.exit:                               ; preds = %52, %54
  %56 = tail call ptr @g_string_append(ptr noundef %1, ptr noundef nonnull @.str.11)
  %indvars.iv.next72 = add nuw nsw i64 %indvars.iv71, 1
  %57 = icmp samesign ult i64 %indvars.iv.next72, %31
  br i1 %57, label %34, label %.loopexit, !llvm.loop !13

.loopexit:                                        ; preds = %rtrim_gstring.exit, %.lr.ph67, %24, %.preheader
  %58 = tail call ptr @g_ptr_array_free(ptr noundef %7, i32 noundef 1)
  br label %59

59:                                               ; preds = %2, %.loopexit
  ret void
}